; ModuleID = 'source-C-CXX/0/910.cpp'
source_filename = "source-C-CXX/0/910.cpp"
target datalayout = "e-m:e-p270:32:32-p271:32:32-p272:64:64-i64:64-f80:128-n8:16:32:64-S128"
target triple = "x86_64-pc-linux-gnu"

%"class.std::ios_base::Init" = type { i8 }
%"class.std::basic_istream" = type { i32 (...)**, i64, %"class.std::basic_ios" }
%"class.std::basic_ios" = type { %"class.std::ios_base", %"class.std::basic_ostream"*, i8, i8, %"class.std::basic_streambuf"*, %"class.std::ctype"*, %"class.std::num_put"*, %"class.std::num_get"* }
%"class.std::ios_base" = type { i32 (...)**, i64, i64, i32, i32, i32, %"struct.std::ios_base::_Callback_list"*, %"struct.std::ios_base::_Words", [8 x %"struct.std::ios_base::_Words"], i32, %"struct.std::ios_base::_Words"*, %"class.std::locale" }
%"struct.std::ios_base::_Callback_list" = type { %"struct.std::ios_base::_Callback_list"*, void (i32, %"class.std::ios_base"*, i32)*, i32, i32 }
%"struct.std::ios_base::_Words" = type { i8*, i64 }
%"class.std::locale" = type { %"class.std::locale::_Impl"* }
%"class.std::locale::_Impl" = type { i32, %"class.std::locale::facet"**, i64, %"class.std::locale::facet"**, i8** }
%"class.std::locale::facet" = type <{ i32 (...)**, i32, [4 x i8] }>
%"class.std::basic_ostream" = type { i32 (...)**, %"class.std::basic_ios" }
%"class.std::basic_streambuf" = type { i32 (...)**, i8*, i8*, i8*, i8*, i8*, i8*, %"class.std::locale" }
%"class.std::ctype" = type <{ %"class.std::locale::facet.base", [4 x i8], %struct.__locale_struct*, i8, [7 x i8], i32*, i32*, i16*, i8, [256 x i8], [256 x i8], i8, [6 x i8] }>
%"class.std::locale::facet.base" = type <{ i32 (...)**, i32 }>
%struct.__locale_struct = type { [13 x %struct.__locale_data*], i16*, i32*, i32*, [13 x i8*] }
%struct.__locale_data = type opaque
%"class.std::num_put" = type { %"class.std::locale::facet.base", [4 x i8] }
%"class.std::num_get" = type { %"class.std::locale::facet.base", [4 x i8] }

@_ZStL8__ioinit = internal global %"class.std::ios_base::Init" zeroinitializer, align 1
@__dso_handle = external hidden global i8
@_ZSt3cin = external global %"class.std::basic_istream", align 8
@_ZSt4cout = external global %"class.std::basic_ostream", align 8
@llvm.global_ctors = appending global [1 x { i32, void ()*, i8* }] [{ i32, void ()*, i8* } { i32 65535, void ()* @_GLOBAL__sub_I_910.cpp, i8* null }]

declare void @_ZNSt8ios_base4InitC1Ev(%"class.std::ios_base::Init"* nonnull align 1 dereferenceable(1)) unnamed_addr #0

; Function Attrs: nounwind
declare void @_ZNSt8ios_base4InitD1Ev(%"class.std::ios_base::Init"* nonnull align 1 dereferenceable(1)) unnamed_addr #1

; Function Attrs: nofree nounwind
declare i32 @__cxa_atexit(void (i8*)*, i8*, i8*) local_unnamed_addr #2

; Function Attrs: mustprogress nofree nosync nounwind readnone sspstrong uwtable willreturn
define dso_local i32 @_Z8multiplyii(i32 %0, i32 %1) local_unnamed_addr #3 {
  %3 = icmp slt i32 %0, %1
  br i1 %3, label %17, label %4

4:                                                ; preds = %2, %13
  %5 = phi i32 [ %14, %13 ], [ 1, %2 ]
  %6 = phi i32 [ %15, %13 ], [ %1, %2 ]
  %7 = srem i32 %0, %6
  %8 = sdiv i32 %0, %6
  %9 = icmp eq i32 %7, 0
  br i1 %9, label %10, label %13

10:                                               ; preds = %4
  %11 = tail call i32 @_Z8multiplyii(i32 %8, i32 %6)
  %12 = add nsw i32 %11, %5
  br label %13

13:                                               ; preds = %4, %10
  %14 = phi i32 [ %12, %10 ], [ %5, %4 ]
  %15 = add i32 %6, 1
  %16 = icmp eq i32 %6, %0
  br i1 %16, label %17, label %4, !llvm.loop !5

17:                                               ; preds = %13, %2
  %18 = phi i32 [ 0, %2 ], [ %14, %13 ]
  ret i32 %18
}

; Function Attrs: argmemonly mustprogress nofree nosync nounwind willreturn
declare void @llvm.lifetime.start.p0i8(i64 immarg, i8* nocapture) #4

; Function Attrs: argmemonly mustprogress nofree nosync nounwind willreturn
declare void @llvm.lifetime.end.p0i8(i64 immarg, i8* nocapture) #4

; Function Attrs: mustprogress norecurse sspstrong uwtable
define dso_local i32 @main() local_unnamed_addr #5 {
  %1 = alloca i32, align 4
  %2 = alloca i32, align 4
  %3 = alloca [1000 x i32], align 16
  %4 = bitcast i32* %1 to i8*
  call void @llvm.lifetime.start.p0i8(i64 4, i8* nonnull %4) #8
  store i32 0, i32* %1, align 4, !tbaa !7
  %5 = bitcast i32* %2 to i8*
  call void @llvm.lifetime.start.p0i8(i64 4, i8* nonnull %5) #8
  %6 = bitcast [1000 x i32]* %3 to i8*
  call void @llvm.lifetime.start.p0i8(i64 4000, i8* nonnull %6) #8
  %7 = call nonnull align 8 dereferenceable(16) %"class.std::basic_istream"* @_ZNSirsERi(%"class.std::basic_istream"* nonnull align 8 dereferenceable(16) @_ZSt3cin, i32* nonnull align 4 dereferenceable(4) %1)
  br label %8

8:                                                ; preds = %8, %0
  %9 = phi i64 [ %15, %8 ], [ 0, %0 ]
  %10 = phi i32 [ %16, %8 ], [ 0, %0 ]
  %11 = call nonnull align 8 dereferenceable(16) %"class.std::basic_istream"* @_ZNSirsERi(%"class.std::basic_istream"* nonnull align 8 dereferenceable(16) @_ZSt3cin, i32* nonnull align 4 dereferenceable(4) %2)
  %12 = load i32, i32* %2, align 4, !tbaa !7
  %13 = call i32 @_Z8multiplyii(i32 %12, i32 2)
  %14 = getelementptr inbounds [1000 x i32], [1000 x i32]* %3, i64 0, i64 %9
  store i32 %13, i32* %14, align 4, !tbaa !7
  %15 = add nuw nsw i64 %9, 1
  %16 = add nuw nsw i32 %10, 1
  %17 = load i32, i32* %1, align 4, !tbaa !7
  %18 = icmp slt i32 %16, %17
  br i1 %18, label %8, label %19, !llvm.loop !11

19:                                               ; preds = %8
  %20 = icmp sgt i32 %17, 0
  br i1 %20, label %21, label %59

21:                                               ; preds = %19, %51
  %22 = phi i64 [ %55, %51 ], [ 0, %19 ]
  %23 = getelementptr inbounds [1000 x i32], [1000 x i32]* %3, i64 0, i64 %22
  %24 = load i32, i32* %23, align 4, !tbaa !7
  %25 = call nonnull align 8 dereferenceable(8) %"class.std::basic_ostream"* @_ZNSolsEi(%"class.std::basic_ostream"* nonnull align 8 dereferenceable(8) @_ZSt4cout, i32 %24)
  %26 = bitcast %"class.std::basic_ostream"* %25 to i8**
  %27 = load i8*, i8** %26, align 8, !tbaa !12
  %28 = getelementptr i8, i8* %27, i64 -24
  %29 = bitcast i8* %28 to i64*
  %30 = load i64, i64* %29, align 8
  %31 = bitcast %"class.std::basic_ostream"* %25 to i8*
  %32 = add nsw i64 %30, 240
  %33 = getelementptr inbounds i8, i8* %31, i64 %32
  %34 = bitcast i8* %33 to %"class.std::ctype"**
  %35 = load %"class.std::ctype"*, %"class.std::ctype"** %34, align 8, !tbaa !14
  %36 = icmp eq %"class.std::ctype"* %35, null
  br i1 %36, label %37, label %38

37:                                               ; preds = %21
  call void @_ZSt16__throw_bad_castv() #9
  unreachable

38:                                               ; preds = %21
  %39 = getelementptr inbounds %"class.std::ctype", %"class.std::ctype"* %35, i64 0, i32 8
  %40 = load i8, i8* %39, align 8, !tbaa !18
  %41 = icmp eq i8 %40, 0
  br i1 %41, label %45, label %42

42:                                               ; preds = %38
  %43 = getelementptr inbounds %"class.std::ctype", %"class.std::ctype"* %35, i64 0, i32 9, i64 10
  %44 = load i8, i8* %43, align 1, !tbaa !20
  br label %51

45:                                               ; preds = %38
  call void @_ZNKSt5ctypeIcE13_M_widen_initEv(%"class.std::ctype"* nonnull align 8 dereferenceable(570) %35)
  %46 = bitcast %"class.std::ctype"* %35 to i8 (%"class.std::ctype"*, i8)***
  %47 = load i8 (%"class.std::ctype"*, i8)**, i8 (%"class.std::ctype"*, i8)*** %46, align 8, !tbaa !12
  %48 = getelementptr inbounds i8 (%"class.std::ctype"*, i8)*, i8 (%"class.std::ctype"*, i8)** %47, i64 6
  %49 = load i8 (%"class.std::ctype"*, i8)*, i8 (%"class.std::ctype"*, i8)** %48, align 8
  %50 = call signext i8 %49(%"class.std::ctype"* nonnull align 8 dereferenceable(570) %35, i8 signext 10)
  br label %51

51:                                               ; preds = %42, %45
  %52 = phi i8 [ %44, %42 ], [ %50, %45 ]
  %53 = call nonnull align 8 dereferenceable(8) %"class.std::basic_ostream"* @_ZNSo3putEc(%"class.std::basic_ostream"* nonnull align 8 dereferenceable(8) %25, i8 signext %52)
  %54 = call nonnull align 8 dereferenceable(8) %"class.std::basic_ostream"* @_ZNSo5flushEv(%"class.std::basic_ostream"* nonnull align 8 dereferenceable(8) %53)
  %55 = add nuw nsw i64 %22, 1
  %56 = load i32, i32* %1, align 4, !tbaa !7
  %57 = sext i32 %56 to i64
  %58 = icmp slt i64 %55, %57
  br i1 %58, label %21, label %59, !llvm.loop !21

59:                                               ; preds = %51, %19
  call void @llvm.lifetime.end.p0i8(i64 4000, i8* nonnull %6) #8
  call void @llvm.lifetime.end.p0i8(i64 4, i8* nonnull %5) #8
  call void @llvm.lifetime.end.p0i8(i64 4, i8* nonnull %4) #8
  ret i32 0
}

declare nonnull align 8 dereferenceable(16) %"class.std::basic_istream"* @_ZNSirsERi(%"class.std::basic_istream"* nonnull align 8 dereferenceable(16), i32* nonnull align 4 dereferenceable(4)) local_unnamed_addr #0

declare nonnull align 8 dereferenceable(8) %"class.std::basic_ostream"* @_ZNSolsEi(%"class.std::basic_ostream"* nonnull align 8 dereferenceable(8), i32) local_unnamed_addr #0

declare nonnull align 8 dereferenceable(8) %"class.std::basic_ostream"* @_ZNSo3putEc(%"class.std::basic_ostream"* nonnull align 8 dereferenceable(8), i8 signext) local_unnamed_addr #0

declare nonnull align 8 dereferenceable(8) %"class.std::basic_ostream"* @_ZNSo5flushEv(%"class.std::basic_ostream"* nonnull align 8 dereferenceable(8)) local_unnamed_addr #0

; Function Attrs: noreturn
declare void @_ZSt16__throw_bad_castv() local_unnamed_addr #6

declare void @_ZNKSt5ctypeIcE13_M_widen_initEv(%"class.std::ctype"* nonnull align 8 dereferenceable(570)) local_unnamed_addr #0

; Function Attrs: sspstrong uwtable
define internal void @_GLOBAL__sub_I_910.cpp() #7 section ".text.startup" {
  tail call void @_ZNSt8ios_base4InitC1Ev(%"class.std::ios_base::Init"* nonnull align 1 dereferenceable(1) @_ZStL8__ioinit)
  %1 = tail call i32 @__cxa_atexit(void (i8*)* bitcast (void (%"class.std::ios_base::Init"*)* @_ZNSt8ios_base4InitD1Ev to void (i8*)*), i8* getelementptr inbounds (%"class.std::ios_base::Init", %"class.std::ios_base::Init"* @_ZStL8__ioinit, i64 0, i32 0), i8* nonnull @__dso_handle) #8
  ret void
}


!llvm.module.flags = !{!0, !1, !2, !3}
!llvm.ident = !{!4}

!0 = !{i32 1, !"wchar_size", i32 4}
!1 = !{i32 7, !"PIC Level", i32 2}
!2 = !{i32 7, !"PIE Level", i32 2}
!3 = !{i32 7, !"uwtable", i32 1}
!4 = !{!"clang version 13.0.0"}
!5 = distinct !{!5, !6}
!6 = !{!"llvm.loop.mustprogress"}
!7 = !{!8, !8, i64 0}
!8 = !{!"int", !9, i64 0}
!9 = !{!"omnipotent char", !10, i64 0}
!10 = !{!"Simple C++ TBAA"}
!11 = distinct !{!11, !6}
!12 = !{!13, !13, i64 0}
!13 = !{!"vtable pointer", !10, i64 0}
!14 = !{!15, !16, i64 240}
!15 = !{!"_ZTSSt9basic_iosIcSt11char_traitsIcEE", !16, i64 216, !9, i64 224, !17, i64 225, !16, i64 232, !16, i64 240, !16, i64 248, !16, i64 256}
!16 = !{!"any pointer", !9, i64 0}
!17 = !{!"bool", !9, i64 0}
!18 = !{!19, !9, i64 56}
!19 = !{!"_ZTSSt5ctypeIcE", !16, i64 16, !17, i64 24, !16, i64 32, !16, i64 40, !16, i64 48, !9, i64 56, !9, i64 57, !9, i64 313, !9, i64 569}
!20 = !{!9, !9, i64 0}
!21 = distinct !{!21, !6}
